target datalayout = "e-m:e-p270:32:32-p271:32:32-p272:64:64-i64:64-i128:128-f80:128-n8:16:32:64-S128"
target triple = "x86_64-pc-linux-gnu"

@.str = private unnamed_addr constant [98 x i8] c"generated/home/dtcxzyw/WorkSpace/Projects/compilers/llvm-opt-benchmark/bench/hdf5/hdf5/src/H5VM.c\00", align 1
@H5E_INTERNAL_g = external global i64, align 8
@__func__.H5VM_opvv = private unnamed_addr constant [10 x i8] c"H5VM_opvv\00", align 1
@H5E_CANTOPERATE_g = external global i64, align 8
@.str.2 = private unnamed_addr constant [24 x i8] c"can't perform operation\00", align 1

; Function Attrs: nounwind uwtable
define i64 @H5VM_opvv(i64 noundef %0, ptr noundef %1, ptr noundef %2, ptr noundef %3, i64 noundef %4, ptr noundef %5, ptr noundef %6, ptr noundef %7, ptr noundef %8, ptr noundef %9) #0 {
  %11 = alloca i64, align 8
  %12 = alloca ptr, align 8
  %13 = alloca ptr, align 8
  %14 = alloca ptr, align 8
  %15 = alloca i64, align 8
  %16 = alloca ptr, align 8
  %17 = alloca ptr, align 8
  %18 = alloca ptr, align 8
  %19 = alloca ptr, align 8
  %20 = alloca ptr, align 8
  %21 = alloca ptr, align 8
  %22 = alloca ptr, align 8
  %23 = alloca ptr, align 8
  %24 = alloca ptr, align 8
  %25 = alloca ptr, align 8
  %26 = alloca ptr, align 8
  %27 = alloca i64, align 8
  %28 = alloca i64, align 8
  %29 = alloca i64, align 8
  %30 = alloca i64, align 8
  %31 = alloca i64, align 8
  %32 = alloca i64, align 8
  %33 = alloca i8, align 1
  store i64 %0, ptr %11, align 8
  store ptr %1, ptr %12, align 8
  store ptr %2, ptr %13, align 8
  store ptr %3, ptr %14, align 8
  store i64 %4, ptr %15, align 8
  store ptr %5, ptr %16, align 8
  store ptr %6, ptr %17, align 8
  store ptr %7, ptr %18, align 8
  store ptr %8, ptr %19, align 8
  store ptr %9, ptr %20, align 8
  store i64 0, ptr %32, align 8
  store i8 0, ptr %33, align 1
  %34 = load ptr, ptr %13, align 8
  %35 = load ptr, ptr %12, align 8
  %36 = load i64, ptr %35, align 8
  %37 = getelementptr inbounds i64, ptr %34, i64 %36
  store ptr %37, ptr %25, align 8
  %38 = load ptr, ptr %14, align 8
  %39 = load ptr, ptr %12, align 8
  %40 = load i64, ptr %39, align 8
  %41 = getelementptr inbounds i64, ptr %38, i64 %40
  store ptr %41, ptr %23, align 8
  %42 = load ptr, ptr %17, align 8
  %43 = load ptr, ptr %16, align 8
  %44 = load i64, ptr %43, align 8
  %45 = getelementptr inbounds i64, ptr %42, i64 %44
  store ptr %45, ptr %26, align 8
  %46 = load ptr, ptr %18, align 8
  %47 = load ptr, ptr %16, align 8
  %48 = load i64, ptr %47, align 8
  %49 = getelementptr inbounds i64, ptr %46, i64 %48
  store ptr %49, ptr %24, align 8
  %50 = load ptr, ptr %25, align 8
  %51 = load i64, ptr %50, align 8
  store i64 %51, ptr %29, align 8
  %52 = load ptr, ptr %23, align 8
  %53 = load i64, ptr %52, align 8
  store i64 %53, ptr %27, align 8
  %54 = load ptr, ptr %26, align 8
  %55 = load i64, ptr %54, align 8
  store i64 %55, ptr %30, align 8
  %56 = load ptr, ptr %24, align 8
  %57 = load i64, ptr %56, align 8
  store i64 %57, ptr %28, align 8
  %58 = load ptr, ptr %14, align 8
  %59 = load i64, ptr %11, align 8
  %60 = getelementptr inbounds i64, ptr %58, i64 %59
  store ptr %60, ptr %21, align 8
  %61 = load ptr, ptr %18, align 8
  %62 = load i64, ptr %15, align 8
  %63 = getelementptr inbounds i64, ptr %61, i64 %62
  store ptr %63, ptr %22, align 8
  %64 = load i64, ptr %30, align 8
  %65 = load i64, ptr %29, align 8
  %66 = icmp ult i64 %64, %65
  br i1 %66, label %67, label %132

67:                                               ; preds = %10
  br label %68

68:                                               ; preds = %267, %199, %67
  store i64 0, ptr %31, align 8
  br label %69

69:                                               ; preds = %119, %68
  %70 = load ptr, ptr %19, align 8
  %71 = load i64, ptr %27, align 8
  %72 = load i64, ptr %28, align 8
  %73 = load i64, ptr %30, align 8
  %74 = load ptr, ptr %20, align 8
  %75 = call i32 %70(i64 noundef %71, i64 noundef %72, i64 noundef %73, ptr noundef %74)
  %76 = icmp slt i32 %75, 0
  br i1 %76, label %77, label %92

77:                                               ; preds = %69
  br label %78

78:                                               ; preds = %77
  br label %79

79:                                               ; preds = %78
  br label %80

80:                                               ; preds = %79
  %81 = load i64, ptr @H5E_INTERNAL_g, align 8
  %82 = load i64, ptr @H5E_CANTOPERATE_g, align 8
  %83 = call i32 (ptr, ptr, i32, i64, i64, ptr, ...) @H5E_printf_stack(ptr noundef @.str, ptr noundef @__func__.H5VM_opvv, i32 noundef 1178, i64 noundef %81, i64 noundef %82, ptr noundef @.str.2)
  br label %84

84:                                               ; preds = %80
  store i8 1, ptr %33, align 1
  %85 = load i8, ptr %33, align 1
  %86 = trunc i8 %85 to i1
  %87 = zext i1 %86 to i8
  store i8 %87, ptr %33, align 1
  br label %88

88:                                               ; preds = %84
  br label %89

89:                                               ; preds = %88
  store i64 -1, ptr %32, align 8
  br label %286

90:                                               ; No predecessors!
  br label %91

91:                                               ; preds = %90
  br label %92

92:                                               ; preds = %91, %69
  %93 = load i64, ptr %30, align 8
  %94 = load i64, ptr %31, align 8
  %95 = add i64 %94, %93
  store i64 %95, ptr %31, align 8
  %96 = load i64, ptr %30, align 8
  %97 = load i64, ptr %27, align 8
  %98 = add i64 %97, %96
  store i64 %98, ptr %27, align 8
  %99 = load i64, ptr %30, align 8
  %100 = load i64, ptr %29, align 8
  %101 = sub i64 %100, %99
  store i64 %101, ptr %29, align 8
  %102 = load ptr, ptr %24, align 8
  %103 = getelementptr inbounds i64, ptr %102, i32 1
  store ptr %103, ptr %24, align 8
  %104 = load ptr, ptr %24, align 8
  %105 = load ptr, ptr %22, align 8
  %106 = icmp uge ptr %104, %105
  br i1 %106, label %107, label %112

107:                                              ; preds = %92
  %108 = load i64, ptr %27, align 8
  %109 = load ptr, ptr %23, align 8
  store i64 %108, ptr %109, align 8
  %110 = load i64, ptr %29, align 8
  %111 = load ptr, ptr %25, align 8
  store i64 %110, ptr %111, align 8
  br label %268

112:                                              ; preds = %92
  %113 = load ptr, ptr %24, align 8
  %114 = load i64, ptr %113, align 8
  store i64 %114, ptr %28, align 8
  %115 = load ptr, ptr %26, align 8
  %116 = getelementptr inbounds i64, ptr %115, i32 1
  store ptr %116, ptr %26, align 8
  %117 = load ptr, ptr %26, align 8
  %118 = load i64, ptr %117, align 8
  store i64 %118, ptr %30, align 8
  br label %119

119:                                              ; preds = %112
  %120 = load i64, ptr %30, align 8
  %121 = load i64, ptr %29, align 8
  %122 = icmp ult i64 %120, %121
  br i1 %122, label %69, label %123

123:                                              ; preds = %119
  %124 = load i64, ptr %31, align 8
  %125 = load i64, ptr %32, align 8
  %126 = add nsw i64 %125, %124
  store i64 %126, ptr %32, align 8
  %127 = load i64, ptr %29, align 8
  %128 = load i64, ptr %30, align 8
  %129 = icmp ult i64 %127, %128
  br i1 %129, label %130, label %131

130:                                              ; preds = %123
  br label %137

131:                                              ; preds = %123
  br label %202

132:                                              ; preds = %10
  %133 = load i64, ptr %29, align 8
  %134 = load i64, ptr %30, align 8
  %135 = icmp ult i64 %133, %134
  br i1 %135, label %136, label %201

136:                                              ; preds = %132
  br label %137

137:                                              ; preds = %266, %136, %130
  store i64 0, ptr %31, align 8
  br label %138

138:                                              ; preds = %188, %137
  %139 = load ptr, ptr %19, align 8
  %140 = load i64, ptr %27, align 8
  %141 = load i64, ptr %28, align 8
  %142 = load i64, ptr %29, align 8
  %143 = load ptr, ptr %20, align 8
  %144 = call i32 %139(i64 noundef %140, i64 noundef %141, i64 noundef %142, ptr noundef %143)
  %145 = icmp slt i32 %144, 0
  br i1 %145, label %146, label %161

146:                                              ; preds = %138
  br label %147

147:                                              ; preds = %146
  br label %148

148:                                              ; preds = %147
  br label %149

149:                                              ; preds = %148
  %150 = load i64, ptr @H5E_INTERNAL_g, align 8
  %151 = load i64, ptr @H5E_CANTOPERATE_g, align 8
  %152 = call i32 (ptr, ptr, i32, i64, i64, ptr, ...) @H5E_printf_stack(ptr noundef @.str, ptr noundef @__func__.H5VM_opvv, i32 noundef 1220, i64 noundef %150, i64 noundef %151, ptr noundef @.str.2)
  br label %153

153:                                              ; preds = %149
  store i8 1, ptr %33, align 1
  %154 = load i8, ptr %33, align 1
  %155 = trunc i8 %154 to i1
  %156 = zext i1 %155 to i8
  store i8 %156, ptr %33, align 1
  br label %157

157:                                              ; preds = %153
  br label %158

158:                                              ; preds = %157
  store i64 -1, ptr %32, align 8
  br label %286

159:                                              ; No predecessors!
  br label %160

160:                                              ; preds = %159
  br label %161

161:                                              ; preds = %160, %138
  %162 = load i64, ptr %29, align 8
  %163 = load i64, ptr %31, align 8
  %164 = add i64 %163, %162
  store i64 %164, ptr %31, align 8
  %165 = load i64, ptr %29, align 8
  %166 = load i64, ptr %28, align 8
  %167 = add i64 %166, %165
  store i64 %167, ptr %28, align 8
  %168 = load i64, ptr %29, align 8
  %169 = load i64, ptr %30, align 8
  %170 = sub i64 %169, %168
  store i64 %170, ptr %30, align 8
  %171 = load ptr, ptr %23, align 8
  %172 = getelementptr inbounds i64, ptr %171, i32 1
  store ptr %172, ptr %23, align 8
  %173 = load ptr, ptr %23, align 8
  %174 = load ptr, ptr %21, align 8
  %175 = icmp uge ptr %173, %174
  br i1 %175, label %176, label %181

176:                                              ; preds = %161
  %177 = load i64, ptr %28, align 8
  %178 = load ptr, ptr %24, align 8
  store i64 %177, ptr %178, align 8
  %179 = load i64, ptr %30, align 8
  %180 = load ptr, ptr %26, align 8
  store i64 %179, ptr %180, align 8
  br label %268

181:                                              ; preds = %161
  %182 = load ptr, ptr %23, align 8
  %183 = load i64, ptr %182, align 8
  store i64 %183, ptr %27, align 8
  %184 = load ptr, ptr %25, align 8
  %185 = getelementptr inbounds i64, ptr %184, i32 1
  store ptr %185, ptr %25, align 8
  %186 = load ptr, ptr %25, align 8
  %187 = load i64, ptr %186, align 8
  store i64 %187, ptr %29, align 8
  br label %188

188:                                              ; preds = %181
  %189 = load i64, ptr %29, align 8
  %190 = load i64, ptr %30, align 8
  %191 = icmp ult i64 %189, %190
  br i1 %191, label %138, label %192

192:                                              ; preds = %188
  %193 = load i64, ptr %31, align 8
  %194 = load i64, ptr %32, align 8
  %195 = add nsw i64 %194, %193
  store i64 %195, ptr %32, align 8
  %196 = load i64, ptr %30, align 8
  %197 = load i64, ptr %29, align 8
  %198 = icmp ult i64 %196, %197
  br i1 %198, label %199, label %200

199:                                              ; preds = %192
  br label %68

200:                                              ; preds = %192
  br label %202

201:                                              ; preds = %132
  br label %202

202:                                              ; preds = %201, %200, %131
  store i64 0, ptr %31, align 8
  br label %203

203:                                              ; preds = %255, %202
  %204 = load ptr, ptr %19, align 8
  %205 = load i64, ptr %27, align 8
  %206 = load i64, ptr %28, align 8
  %207 = load i64, ptr %29, align 8
  %208 = load ptr, ptr %20, align 8
  %209 = call i32 %204(i64 noundef %205, i64 noundef %206, i64 noundef %207, ptr noundef %208)
  %210 = icmp slt i32 %209, 0
  br i1 %210, label %211, label %226

211:                                              ; preds = %203
  br label %212

212:                                              ; preds = %211
  br label %213

213:                                              ; preds = %212
  br label %214

214:                                              ; preds = %213
  %215 = load i64, ptr @H5E_INTERNAL_g, align 8
  %216 = load i64, ptr @H5E_CANTOPERATE_g, align 8
  %217 = call i32 (ptr, ptr, i32, i64, i64, ptr, ...) @H5E_printf_stack(ptr noundef @.str, ptr noundef @__func__.H5VM_opvv, i32 noundef 1262, i64 noundef %215, i64 noundef %216, ptr noundef @.str.2)
  br label %218

218:                                              ; preds = %214
  store i8 1, ptr %33, align 1
  %219 = load i8, ptr %33, align 1
  %220 = trunc i8 %219 to i1
  %221 = zext i1 %220 to i8
  store i8 %221, ptr %33, align 1
  br label %222

222:                                              ; preds = %218
  br label %223

223:                                              ; preds = %222
  store i64 -1, ptr %32, align 8
  br label %286

224:                                              ; No predecessors!
  br label %225

225:                                              ; preds = %224
  br label %226

226:                                              ; preds = %225, %203
  %227 = load i64, ptr %29, align 8
  %228 = load i64, ptr %31, align 8
  %229 = add i64 %228, %227
  store i64 %229, ptr %31, align 8
  %230 = load ptr, ptr %24, align 8
  %231 = getelementptr inbounds i64, ptr %230, i32 1
  store ptr %231, ptr %24, align 8
  %232 = load ptr, ptr %23, align 8
  %233 = getelementptr inbounds i64, ptr %232, i32 1
  store ptr %233, ptr %23, align 8
  %234 = load ptr, ptr %24, align 8
  %235 = load ptr, ptr %22, align 8
  %236 = icmp uge ptr %234, %235
  br i1 %236, label %241, label %237

237:                                              ; preds = %226
  %238 = load ptr, ptr %23, align 8
  %239 = load ptr, ptr %21, align 8
  %240 = icmp uge ptr %238, %239
  br i1 %240, label %241, label %242

241:                                              ; preds = %237, %226
  br label %268

242:                                              ; preds = %237
  %243 = load ptr, ptr %24, align 8
  %244 = load i64, ptr %243, align 8
  store i64 %244, ptr %28, align 8
  %245 = load ptr, ptr %23, align 8
  %246 = load i64, ptr %245, align 8
  store i64 %246, ptr %27, align 8
  %247 = load ptr, ptr %26, align 8
  %248 = getelementptr inbounds i64, ptr %247, i32 1
  store ptr %248, ptr %26, align 8
  %249 = load ptr, ptr %26, align 8
  %250 = load i64, ptr %249, align 8
  store i64 %250, ptr %30, align 8
  %251 = load ptr, ptr %25, align 8
  %252 = getelementptr inbounds i64, ptr %251, i32 1
  store ptr %252, ptr %25, align 8
  %253 = load ptr, ptr %25, align 8
  %254 = load i64, ptr %253, align 8
  store i64 %254, ptr %29, align 8
  br label %255

255:                                              ; preds = %242
  %256 = load i64, ptr %29, align 8
  %257 = load i64, ptr %30, align 8
  %258 = icmp eq i64 %256, %257
  br i1 %258, label %203, label %259

259:                                              ; preds = %255
  %260 = load i64, ptr %31, align 8
  %261 = load i64, ptr %32, align 8
  %262 = add nsw i64 %261, %260
  store i64 %262, ptr %32, align 8
  %263 = load i64, ptr %29, align 8
  %264 = load i64, ptr %30, align 8
  %265 = icmp ult i64 %263, %264
  br i1 %265, label %266, label %267

266:                                              ; preds = %259
  br label %137

267:                                              ; preds = %259
  br label %68

268:                                              ; preds = %241, %176, %107
  %269 = load i64, ptr %31, align 8
  %270 = load i64, ptr %32, align 8
  %271 = add nsw i64 %270, %269
  store i64 %271, ptr %32, align 8
  %272 = load ptr, ptr %23, align 8
  %273 = load ptr, ptr %14, align 8
  %274 = ptrtoint ptr %272 to i64
  %275 = ptrtoint ptr %273 to i64
  %276 = sub i64 %274, %275
  %277 = sdiv exact i64 %276, 8
  %278 = load ptr, ptr %12, align 8
  store i64 %277, ptr %278, align 8
  %279 = load ptr, ptr %24, align 8
  %280 = load ptr, ptr %18, align 8
  %281 = ptrtoint ptr %279 to i64
  %282 = ptrtoint ptr %280 to i64
  %283 = sub i64 %281, %282
  %284 = sdiv exact i64 %283, 8
  %285 = load ptr, ptr %16, align 8
  store i64 %284, ptr %285, align 8
  br label %286

286:                                              ; preds = %268, %223, %158, %89
  %287 = load i64, ptr %32, align 8
  ret i64 %287
}