; Function Attrs: nounwind uwtable
define i64 @H5VM_opvv(i64 noundef %0, ptr nocapture noundef %1, ptr nocapture noundef %2, ptr noundef %3, i64 noundef %4, ptr nocapture noundef %5, ptr nocapture noundef %6, ptr noundef %7, ptr nocapture noundef readonly %8, ptr noundef %9) local_unnamed_addr #7 {
  %11 = load i64, ptr %1, align 8
  %12 = getelementptr inbounds i64, ptr %2, i64 %11
  %13 = getelementptr inbounds i64, ptr %3, i64 %11
  %14 = load i64, ptr %5, align 8
  %15 = getelementptr inbounds i64, ptr %6, i64 %14
  %16 = getelementptr inbounds i64, ptr %7, i64 %14
  %17 = load i64, ptr %12, align 8
  %18 = load i64, ptr %13, align 8
  %19 = load i64, ptr %15, align 8
  %20 = load i64, ptr %16, align 8
  %21 = getelementptr inbounds i64, ptr %3, i64 %0
  %22 = getelementptr inbounds i64, ptr %7, i64 %4
  %23 = icmp ult i64 %19, %17
  br i1 %23, label %24, label %46

24:                                               ; preds = %90, %67, %10
  %.0151 = phi ptr [ %13, %10 ], [ %60, %67 ], [ %81, %90 ]
  %.0145 = phi ptr [ %16, %10 ], [ %.2147, %67 ], [ %80, %90 ]
  %.0140 = phi ptr [ %12, %10 ], [ %64, %67 ], [ %87, %90 ]
  %.0135 = phi ptr [ %15, %10 ], [ %.2137, %67 ], [ %85, %90 ]
  %.0129 = phi i64 [ %18, %10 ], [ %63, %67 ], [ %84, %90 ]
  %.0123 = phi i64 [ %20, %10 ], [ %58, %67 ], [ %83, %90 ]
  %.0118 = phi i64 [ %17, %10 ], [ %65, %67 ], [ %88, %90 ]
  %.0114 = phi i64 [ %19, %10 ], [ %59, %67 ], [ %86, %90 ]
  %.0 = phi i64 [ 0, %10 ], [ %68, %67 ], [ %91, %90 ]
  br label %25

25:                                               ; preds = %38, %24
  %.1146 = phi ptr [ %.0145, %24 ], [ %36, %38 ]
  %.1136 = phi ptr [ %.0135, %24 ], [ %40, %38 ]
  %.1130 = phi i64 [ %.0129, %24 ], [ %34, %38 ]
  %.1124 = phi i64 [ %.0123, %24 ], [ %39, %38 ]
  %.1119 = phi i64 [ %.0118, %24 ], [ %35, %38 ]
  %.1115 = phi i64 [ %.0114, %24 ], [ %41, %38 ]
  %.0110 = phi i64 [ 0, %24 ], [ %33, %38 ]
  %26 = tail call i32 %8(i64 noundef %.1130, i64 noundef %.1124, i64 noundef %.1115, ptr noundef %9) #9
  %27 = icmp slt i32 %26, 0
  br i1 %27, label %28, label %32

28:                                               ; preds = %25
  %29 = load i64, ptr @H5E_INTERNAL_g, align 8
  %30 = load i64, ptr @H5E_CANTOPERATE_g, align 8
  %31 = tail call i32 (ptr, ptr, i32, i64, i64, ptr, ...) @H5E_printf_stack(ptr noundef nonnull @.str, ptr noundef nonnull @__func__.H5VM_opvv, i32 noundef 1178, i64 noundef %29, i64 noundef %30, ptr noundef nonnull @.str.2) #9
  br label %102

32:                                               ; preds = %25
  %33 = add i64 %.0110, %.1115
  %34 = add i64 %.1115, %.1130
  %35 = sub i64 %.1119, %.1115
  %36 = getelementptr inbounds i8, ptr %.1146, i64 8
  %.not = icmp ult ptr %36, %22
  br i1 %.not, label %38, label %37

37:                                               ; preds = %32
  store i64 %34, ptr %.0151, align 8
  store i64 %35, ptr %.0140, align 8
  br label %.loopexit

38:                                               ; preds = %32
  %39 = load i64, ptr %36, align 8
  %40 = getelementptr inbounds i8, ptr %.1136, i64 8
  %41 = load i64, ptr %40, align 8
  %42 = icmp ult i64 %41, %35
  br i1 %42, label %25, label %43

43:                                               ; preds = %38
  %44 = add nsw i64 %33, %.0
  %45 = icmp ult i64 %35, %41
  br i1 %45, label %48, label %70

46:                                               ; preds = %10
  %47 = icmp ult i64 %17, %19
  br i1 %47, label %48, label %70

48:                                               ; preds = %90, %46, %43
  %.1152 = phi ptr [ %.0151, %43 ], [ %81, %90 ], [ %13, %46 ]
  %.2147 = phi ptr [ %36, %43 ], [ %80, %90 ], [ %16, %46 ]
  %.1141 = phi ptr [ %.0140, %43 ], [ %87, %90 ], [ %12, %46 ]
  %.2137 = phi ptr [ %40, %43 ], [ %85, %90 ], [ %15, %46 ]
  %.2131 = phi i64 [ %34, %43 ], [ %84, %90 ], [ %18, %46 ]
  %.2125 = phi i64 [ %39, %43 ], [ %83, %90 ], [ %20, %46 ]
  %.2120 = phi i64 [ %35, %43 ], [ %88, %90 ], [ %17, %46 ]
  %.2116 = phi i64 [ %41, %43 ], [ %86, %90 ], [ %19, %46 ]
  %.1 = phi i64 [ %44, %43 ], [ %91, %90 ], [ 0, %46 ]
  br label %49

49:                                               ; preds = %62, %48
  %.2153 = phi ptr [ %.1152, %48 ], [ %60, %62 ]
  %.2142 = phi ptr [ %.1141, %48 ], [ %64, %62 ]
  %.3132 = phi i64 [ %.2131, %48 ], [ %63, %62 ]
  %.3126 = phi i64 [ %.2125, %48 ], [ %58, %62 ]
  %.3121 = phi i64 [ %.2120, %48 ], [ %65, %62 ]
  %.3117 = phi i64 [ %.2116, %48 ], [ %59, %62 ]
  %.1111 = phi i64 [ 0, %48 ], [ %57, %62 ]
  %50 = tail call i32 %8(i64 noundef %.3132, i64 noundef %.3126, i64 noundef %.3121, ptr noundef %9) #9
  %51 = icmp slt i32 %50, 0
  br i1 %51, label %52, label %56

52:                                               ; preds = %49
  %53 = load i64, ptr @H5E_INTERNAL_g, align 8
  %54 = load i64, ptr @H5E_CANTOPERATE_g, align 8
  %55 = tail call i32 (ptr, ptr, i32, i64, i64, ptr, ...) @H5E_printf_stack(ptr noundef nonnull @.str, ptr noundef nonnull @__func__.H5VM_opvv, i32 noundef 1220, i64 noundef %53, i64 noundef %54, ptr noundef nonnull @.str.2) #9
  br label %102

56:                                               ; preds = %49
  %57 = add i64 %.1111, %.3121
  %58 = add i64 %.3121, %.3126
  %59 = sub i64 %.3117, %.3121
  %60 = getelementptr inbounds i8, ptr %.2153, i64 8
  %.not180 = icmp ult ptr %60, %21
  br i1 %.not180, label %62, label %61

61:                                               ; preds = %56
  store i64 %58, ptr %.2147, align 8
  store i64 %59, ptr %.2137, align 8
  br label %.loopexit

62:                                               ; preds = %56
  %63 = load i64, ptr %60, align 8
  %64 = getelementptr inbounds i8, ptr %.2142, i64 8
  %65 = load i64, ptr %64, align 8
  %66 = icmp ult i64 %65, %59
  br i1 %66, label %49, label %67

67:                                               ; preds = %62
  %68 = add nsw i64 %57, %.1
  %69 = icmp ult i64 %59, %65
  br i1 %69, label %24, label %70

70:                                               ; preds = %46, %67, %43
  %.3154 = phi ptr [ %60, %67 ], [ %.0151, %43 ], [ %13, %46 ]
  %.3148 = phi ptr [ %.2147, %67 ], [ %36, %43 ], [ %16, %46 ]
  %.3143 = phi ptr [ %64, %67 ], [ %.0140, %43 ], [ %12, %46 ]
  %.3138 = phi ptr [ %.2137, %67 ], [ %40, %43 ], [ %15, %46 ]
  %.4133 = phi i64 [ %63, %67 ], [ %34, %43 ], [ %18, %46 ]
  %.4127 = phi i64 [ %58, %67 ], [ %39, %43 ], [ %20, %46 ]
  %.4122 = phi i64 [ %65, %67 ], [ %35, %43 ], [ %17, %46 ]
  %.2 = phi i64 [ %68, %67 ], [ %44, %43 ], [ 0, %46 ]
  br label %71

71:                                               ; preds = %82, %70
  %.4155 = phi ptr [ %.3154, %70 ], [ %81, %82 ]
  %.4149 = phi ptr [ %.3148, %70 ], [ %80, %82 ]
  %.4144 = phi ptr [ %.3143, %70 ], [ %87, %82 ]
  %.4139 = phi ptr [ %.3138, %70 ], [ %85, %82 ]
  %.5134 = phi i64 [ %.4133, %70 ], [ %84, %82 ]
  %.5128 = phi i64 [ %.4127, %70 ], [ %83, %82 ]
  %.5 = phi i64 [ %.4122, %70 ], [ %86, %82 ]
  %.2112 = phi i64 [ 0, %70 ], [ %79, %82 ]
  %72 = tail call i32 %8(i64 noundef %.5134, i64 noundef %.5128, i64 noundef %.5, ptr noundef %9) #9
  %73 = icmp slt i32 %72, 0
  br i1 %73, label %74, label %78

74:                                               ; preds = %71
  %75 = load i64, ptr @H5E_INTERNAL_g, align 8
  %76 = load i64, ptr @H5E_CANTOPERATE_g, align 8
  %77 = tail call i32 (ptr, ptr, i32, i64, i64, ptr, ...) @H5E_printf_stack(ptr noundef nonnull @.str, ptr noundef nonnull @__func__.H5VM_opvv, i32 noundef 1262, i64 noundef %75, i64 noundef %76, ptr noundef nonnull @.str.2) #9
  br label %102

78:                                               ; preds = %71
  %79 = add i64 %.2112, %.5
  %80 = getelementptr inbounds i8, ptr %.4149, i64 8
  %81 = getelementptr inbounds i8, ptr %.4155, i64 8
  %.not181 = icmp ult ptr %80, %22
  %.not182 = icmp ult ptr %81, %21
  %or.cond = select i1 %.not181, i1 %.not182, i1 false
  br i1 %or.cond, label %82, label %.loopexit

82:                                               ; preds = %78
  %83 = load i64, ptr %80, align 8
  %84 = load i64, ptr %81, align 8
  %85 = getelementptr inbounds i8, ptr %.4139, i64 8
  %86 = load i64, ptr %85, align 8
  %87 = getelementptr inbounds i8, ptr %.4144, i64 8
  %88 = load i64, ptr %87, align 8
  %89 = icmp eq i64 %88, %86
  br i1 %89, label %71, label %90

90:                                               ; preds = %82
  %91 = add nsw i64 %79, %.2
  %92 = icmp ult i64 %88, %86
  br i1 %92, label %48, label %24

.loopexit:                                        ; preds = %78, %61, %37
  %.5156 = phi ptr [ %.0151, %37 ], [ %60, %61 ], [ %81, %78 ]
  %.5150 = phi ptr [ %36, %37 ], [ %.2147, %61 ], [ %80, %78 ]
  %.3113 = phi i64 [ %33, %37 ], [ %57, %61 ], [ %79, %78 ]
  %.3 = phi i64 [ %.0, %37 ], [ %.1, %61 ], [ %.2, %78 ]
  %93 = add nsw i64 %.3, %.3113
  %94 = ptrtoint ptr %.5156 to i64
  %95 = ptrtoint ptr %3 to i64
  %96 = sub i64 %94, %95
  %97 = ashr exact i64 %96, 3
  store i64 %97, ptr %1, align 8
  %98 = ptrtoint ptr %.5150 to i64
  %99 = ptrtoint ptr %7 to i64
  %100 = sub i64 %98, %99
  %101 = ashr exact i64 %100, 3
  store i64 %101, ptr %5, align 8
  br label %102

102:                                              ; preds = %.loopexit, %74, %52, %28
  %.4 = phi i64 [ -1, %28 ], [ %93, %.loopexit ], [ -1, %52 ], [ -1, %74 ]
  ret i64 %.4
}